; ModuleID = '52/1250.c'
source_filename = "52/1250.c"
target datalayout = "e-m:e-p270:32:32-p271:32:32-p272:64:64-i64:64-f80:128-n8:16:32:64-S128"
target triple = "x86_64-pc-linux-gnu"

%struct.n = type { i32, %struct.n* }

@.str = private unnamed_addr constant [6 x i8] c"%d %d\00", align 1
@.str.1 = private unnamed_addr constant [3 x i8] c"%d\00", align 1
@num = common dso_local global [100 x %struct.n] zeroinitializer, align 16
@.str.2 = private unnamed_addr constant [4 x i8] c"%d \00", align 1
@.str.3 = private unnamed_addr constant [4 x i8] c"%d\0A\00", align 1

; Function Attrs: noinline nounwind uwtable
define dso_local void @main() #0 {
  %1 = alloca [100 x i32], align 16
  %2 = alloca i32, align 4
  %3 = alloca i32, align 4
  %4 = alloca i32, align 4
  %5 = alloca %struct.n*, align 8
  %6 = call i32 (i8*, ...) @__isoc99_scanf(i8* getelementptr inbounds ([6 x i8], [6 x i8]* @.str, i64 0, i64 0), i32* %3, i32* %4)
  store i32 0, i32* %2, align 4
  br label %7

7:                                                ; preds = %16, %0
  %8 = load i32, i32* %2, align 4
  %9 = load i32, i32* %3, align 4
  %10 = icmp slt i32 %8, %9
  br i1 %10, label %11, label %19

11:                                               ; preds = %7
  %12 = load i32, i32* %2, align 4
  %13 = sext i32 %12 to i64
  %14 = getelementptr inbounds [100 x i32], [100 x i32]* %1, i64 0, i64 %13
  %15 = call i32 (i8*, ...) @__isoc99_scanf(i8* getelementptr inbounds ([3 x i8], [3 x i8]* @.str.1, i64 0, i64 0), i32* %14)
  br label %16

16:                                               ; preds = %11
  %17 = load i32, i32* %2, align 4
  %18 = add nsw i32 %17, 1
  store i32 %18, i32* %2, align 4
  br label %7

19:                                               ; preds = %7
  store i32 0, i32* %2, align 4
  br label %20

20:                                               ; preds = %33, %19
  %21 = load i32, i32* %2, align 4
  %22 = load i32, i32* %3, align 4
  %23 = icmp slt i32 %21, %22
  br i1 %23, label %24, label %36

24:                                               ; preds = %20
  %25 = load i32, i32* %2, align 4
  %26 = sext i32 %25 to i64
  %27 = getelementptr inbounds [100 x i32], [100 x i32]* %1, i64 0, i64 %26
  %28 = load i32, i32* %27, align 4
  %29 = load i32, i32* %2, align 4
  %30 = sext i32 %29 to i64
  %31 = getelementptr inbounds [100 x %struct.n], [100 x %struct.n]* @num, i64 0, i64 %30
  %32 = getelementptr inbounds %struct.n, %struct.n* %31, i32 0, i32 0
  store i32 %28, i32* %32, align 16
  br label %33

33:                                               ; preds = %24
  %34 = load i32, i32* %2, align 4
  %35 = add nsw i32 %34, 1
  store i32 %35, i32* %2, align 4
  br label %20

36:                                               ; preds = %20
  store i32 0, i32* %2, align 4
  br label %37

37:                                               ; preds = %51, %36
  %38 = load i32, i32* %2, align 4
  %39 = load i32, i32* %3, align 4
  %40 = sub nsw i32 %39, 1
  %41 = icmp slt i32 %38, %40
  br i1 %41, label %42, label %54

42:                                               ; preds = %37
  %43 = load i32, i32* %2, align 4
  %44 = add nsw i32 %43, 1
  %45 = sext i32 %44 to i64
  %46 = getelementptr inbounds [100 x %struct.n], [100 x %struct.n]* @num, i64 0, i64 %45
  %47 = load i32, i32* %2, align 4
  %48 = sext i32 %47 to i64
  %49 = getelementptr inbounds [100 x %struct.n], [100 x %struct.n]* @num, i64 0, i64 %48
  %50 = getelementptr inbounds %struct.n, %struct.n* %49, i32 0, i32 1
  store %struct.n* %46, %struct.n** %50, align 8
  br label %51

51:                                               ; preds = %42
  %52 = load i32, i32* %2, align 4
  %53 = add nsw i32 %52, 1
  store i32 %53, i32* %2, align 4
  br label %37

54:                                               ; preds = %37
  %55 = load i32, i32* %3, align 4
  %56 = sub nsw i32 %55, 1
  %57 = sext i32 %56 to i64
  %58 = getelementptr inbounds [100 x %struct.n], [100 x %struct.n]* @num, i64 0, i64 %57
  %59 = getelementptr inbounds %struct.n, %struct.n* %58, i32 0, i32 1
  store %struct.n* getelementptr inbounds ([100 x %struct.n], [100 x %struct.n]* @num, i64 0, i64 0), %struct.n** %59, align 8
  %60 = load i32, i32* %3, align 4
  %61 = load i32, i32* %4, align 4
  %62 = sub nsw i32 %60, %61
  %63 = sext i32 %62 to i64
  %64 = getelementptr inbounds [100 x %struct.n], [100 x %struct.n]* @num, i64 0, i64 %63
  store %struct.n* %64, %struct.n** %5, align 8
  store i32 0, i32* %2, align 4
  br label %65

65:                                               ; preds = %78, %54
  %66 = load i32, i32* %2, align 4
  %67 = load i32, i32* %3, align 4
  %68 = sub nsw i32 %67, 1
  %69 = icmp slt i32 %66, %68
  br i1 %69, label %70, label %81

70:                                               ; preds = %65
  %71 = load %struct.n*, %struct.n** %5, align 8
  %72 = getelementptr inbounds %struct.n, %struct.n* %71, i32 0, i32 0
  %73 = load i32, i32* %72, align 8
  %74 = call i32 (i8*, ...) @printf(i8* getelementptr inbounds ([4 x i8], [4 x i8]* @.str.2, i64 0, i64 0), i32 %73)
  %75 = load %struct.n*, %struct.n** %5, align 8
  %76 = getelementptr inbounds %struct.n, %struct.n* %75, i32 0, i32 1
  %77 = load %struct.n*, %struct.n** %76, align 8
  store %struct.n* %77, %struct.n** %5, align 8
  br label %78

78:                                               ; preds = %70
  %79 = load i32, i32* %2, align 4
  %80 = add nsw i32 %79, 1
  store i32 %80, i32* %2, align 4
  br label %65

81:                                               ; preds = %65
  %82 = load %struct.n*, %struct.n** %5, align 8
  %83 = getelementptr inbounds %struct.n, %struct.n* %82, i32 0, i32 0
  %84 = load i32, i32* %83, align 8
  %85 = call i32 (i8*, ...) @printf(i8* getelementptr inbounds ([4 x i8], [4 x i8]* @.str.3, i64 0, i64 0), i32 %84)
  ret void
}

declare dso_local i32 @__isoc99_scanf(i8*, ...) #1

declare dso_local i32 @printf(i8*, ...) #1


!llvm.module.flags = !{!0}
!llvm.ident = !{!1}

!0 = !{i32 1, !"wchar_size", i32 4}
!1 = !{!"clang version 10.0.0-4ubuntu1 "}
